target datalayout = "e-m:e-p270:32:32-p271:32:32-p272:64:64-i64:64-i128:128-f80:128-n8:16:32:64-S128"
target triple = "x86_64-unknown-linux-gnu"

%"class.icu_75::Locale" = type <{ %"class.icu_75::UObject", [12 x i8], [6 x i8], [4 x i8], [2 x i8], i32, [4 x i8], ptr, [157 x i8], [3 x i8], ptr, i8, [7 x i8] }>
%"class.icu_75::UObject" = type { ptr }
%"class.icu_75::LocaleMatcher" = type { ptr, ptr, i32, i32, i32, i32, ptr, ptr, i32, ptr, ptr, ptr, i32, ptr, ptr }
%"struct.icu_75::LSR" = type <{ ptr, ptr, ptr, ptr, i32, i32, i32, [4 x i8] }>

@.str = private unnamed_addr constant [4 x i8] c"und\00", align 1
@.str.1 = private unnamed_addr constant [1 x i8] zeroinitializer, align 1

; Function Attrs: mustprogress uwtable
define linkonce_odr void @_ZN6icu_753LSRC2EPKcS2_S2_i(ptr noundef nonnull align 8 dereferenceable(48) %this, ptr noundef %lang, ptr noundef %scr, ptr noundef %r, i32 noundef %f) unnamed_addr #1 comdat align 2 {
entry:
  %this.addr = alloca ptr, align 8
  %lang.addr = alloca ptr, align 8
  %scr.addr = alloca ptr, align 8
  %r.addr = alloca ptr, align 8
  %f.addr = alloca i32, align 4
  store ptr %this, ptr %this.addr, align 8
  store ptr %lang, ptr %lang.addr, align 8
  store ptr %scr, ptr %scr.addr, align 8
  store ptr %r, ptr %r.addr, align 8
  store i32 %f, ptr %f.addr, align 4
  %this1 = load ptr, ptr %this.addr, align 8
  %language = getelementptr inbounds %"struct.icu_75::LSR", ptr %this1, i32 0, i32 0
  %0 = load ptr, ptr %lang.addr, align 8
  store ptr %0, ptr %language, align 8
  %script = getelementptr inbounds %"struct.icu_75::LSR", ptr %this1, i32 0, i32 1
  %1 = load ptr, ptr %scr.addr, align 8
  store ptr %1, ptr %script, align 8
  %region = getelementptr inbounds %"struct.icu_75::LSR", ptr %this1, i32 0, i32 2
  %2 = load ptr, ptr %r.addr, align 8
  store ptr %2, ptr %region, align 8
  %owned = getelementptr inbounds %"struct.icu_75::LSR", ptr %this1, i32 0, i32 3
  store ptr null, ptr %owned, align 8
  %regionIndex = getelementptr inbounds %"struct.icu_75::LSR", ptr %this1, i32 0, i32 4
  %region2 = getelementptr inbounds %"struct.icu_75::LSR", ptr %this1, i32 0, i32 2
  %3 = load ptr, ptr %region2, align 8
  %call = call noundef i32 @_ZN6icu_753LSR14indexForRegionEPKc(ptr noundef %3)
  store i32 %call, ptr %regionIndex, align 8
  %flags = getelementptr inbounds %"struct.icu_75::LSR", ptr %this1, i32 0, i32 5
  %4 = load i32, ptr %f.addr, align 4
  store i32 %4, ptr %flags, align 4
  %hashCode = getelementptr inbounds %"struct.icu_75::LSR", ptr %this1, i32 0, i32 6
  store i32 0, ptr %hashCode, align 8
  ret void
}

; Function Attrs: mustprogress nounwind uwtable
define linkonce_odr noundef ptr @_ZNK6icu_756Locale7getNameEv(ptr noundef nonnull align 8 dereferenceable(217) %this) #0 comdat align 2 {
entry:
  %this.addr = alloca ptr, align 8
  store ptr %this, ptr %this.addr, align 8
  %this1 = load ptr, ptr %this.addr, align 8
  %fullName = getelementptr inbounds %"class.icu_75::Locale", ptr %this1, i32 0, i32 7
  %0 = load ptr, ptr %fullName, align 8
  ret ptr %0
}

; Function Attrs: mustprogress nounwind uwtable
define linkonce_odr noundef signext i8 @_ZNK6icu_756Locale7isBogusEv(ptr noundef nonnull align 8 dereferenceable(217) %this) #0 comdat align 2 {
entry:
  %this.addr = alloca ptr, align 8
  store ptr %this, ptr %this.addr, align 8
  %this1 = load ptr, ptr %this.addr, align 8
  %fIsBogus = getelementptr inbounds %"class.icu_75::Locale", ptr %this1, i32 0, i32 11
  %0 = load i8, ptr %fIsBogus, align 8
  ret i8 %0
}

; Function Attrs: mustprogress nounwind uwtable
define linkonce_odr noundef i32 @_ZN6icu_7514LocaleDistance13shiftDistanceEi(i32 noundef %distance) #0 comdat align 2 {
entry:
  %distance.addr = alloca i32, align 4
  store i32 %distance, ptr %distance.addr, align 4
  %0 = load i32, ptr %distance.addr, align 4
  %shl = shl i32 %0, 3
  ret i32 %shl
}

; Function Attrs: mustprogress nounwind uwtable
define internal noundef signext i8 @_ZL9U_FAILURE10UErrorCode(i32 noundef %code) #0 {
entry:
  %code.addr = alloca i32, align 4
  store i32 %code, ptr %code.addr, align 4
  %0 = load i32, ptr %code.addr, align 4
  %cmp = icmp sgt i32 %0, 0
  %conv = zext i1 %cmp to i8
  ret i8 %conv
}

; Function Attrs: mustprogress uwtable
define internal void @_ZN6icu_7512_GLOBAL__N_118getMaximalLsrOrUndERKNS_13LikelySubtagsERKNS_6LocaleER10UErrorCode(ptr noalias sret(%"struct.icu_75::LSR") align 8 %agg.result, ptr noundef nonnull align 8 dereferenceable(352) %likelySubtags, ptr noundef nonnull align 8 dereferenceable(217) %locale, ptr noundef nonnull align 4 dereferenceable(4) %errorCode) #1 {
entry:
  %result.ptr = alloca ptr, align 8
  %likelySubtags.addr = alloca ptr, align 8
  %locale.addr = alloca ptr, align 8
  %errorCode.addr = alloca ptr, align 8
  store ptr %agg.result, ptr %result.ptr, align 8
  store ptr %likelySubtags, ptr %likelySubtags.addr, align 8
  store ptr %locale, ptr %locale.addr, align 8
  store ptr %errorCode, ptr %errorCode.addr, align 8
  %0 = load ptr, ptr %errorCode.addr, align 8
  %1 = load i32, ptr %0, align 4
  %call = call noundef signext i8 @_ZL9U_FAILURE10UErrorCode(i32 noundef %1)
  %tobool = icmp ne i8 %call, 0
  br i1 %tobool, label %if.then, label %lor.lhs.false

lor.lhs.false:                                    ; preds = %entry
  %2 = load ptr, ptr %locale.addr, align 8
  %call1 = call noundef signext i8 @_ZNK6icu_756Locale7isBogusEv(ptr noundef nonnull align 8 dereferenceable(217) %2)
  %tobool2 = icmp ne i8 %call1, 0
  br i1 %tobool2, label %if.then, label %lor.lhs.false3

lor.lhs.false3:                                   ; preds = %lor.lhs.false
  %3 = load ptr, ptr %locale.addr, align 8
  %call4 = call noundef ptr @_ZNK6icu_756Locale7getNameEv(ptr noundef nonnull align 8 dereferenceable(217) %3)
  %4 = load i8, ptr %call4, align 1
  %conv = sext i8 %4 to i32
  %cmp = icmp eq i32 %conv, 0
  br i1 %cmp, label %if.then, label %if.else

if.then:                                          ; preds = %lor.lhs.false3, %lor.lhs.false, %entry
  call void @_ZN6icu_753LSRC2EPKcS2_S2_i(ptr noundef nonnull align 8 dereferenceable(48) %agg.result, ptr noundef @.str, ptr noundef @.str.1, ptr noundef @.str.1, i32 noundef 7)
  br label %return

if.else:                                          ; preds = %lor.lhs.false3
  %5 = load ptr, ptr %likelySubtags.addr, align 8
  %6 = load ptr, ptr %locale.addr, align 8
  %7 = load ptr, ptr %errorCode.addr, align 8
  call void @_ZNK6icu_7513LikelySubtags20makeMaximizedLsrFromERKNS_6LocaleEbR10UErrorCode(ptr sret(%"struct.icu_75::LSR") align 8 %agg.result, ptr noundef nonnull align 8 dereferenceable(352) %5, ptr noundef nonnull align 8 dereferenceable(217) %6, i1 noundef zeroext false, ptr noundef nonnull align 4 dereferenceable(4) %7)
  br label %return

return:                                           ; preds = %if.else, %if.then
  ret void
}

; Function Attrs: mustprogress uwtable
define noundef signext i8 @_ZNK6icu_7513LocaleMatcher7isMatchERKNS_6LocaleES3_R10UErrorCode(ptr noundef nonnull align 8 dereferenceable(104) %this, ptr noundef nonnull align 8 dereferenceable(217) %desired, ptr noundef nonnull align 8 dereferenceable(217) %supported, ptr noundef nonnull align 4 dereferenceable(4) %errorCode) #1 align 2 personality ptr @__gxx_personality_v0 {
entry:
  %retval = alloca i8, align 1
  %this.addr = alloca ptr, align 8
  %desired.addr = alloca ptr, align 8
  %supported.addr = alloca ptr, align 8
  %errorCode.addr = alloca ptr, align 8
  %suppLSR = alloca %"struct.icu_75::LSR", align 8
  %exn.slot = alloca ptr, align 8
  %ehselector.slot = alloca i32, align 4
  %cleanup.dest.slot = alloca i32, align 4
  %pSuppLSR = alloca ptr, align 8
  %indexAndDistance = alloca i32, align 4
  %ref.tmp = alloca %"struct.icu_75::LSR", align 8
  store ptr %this, ptr %this.addr, align 8
  store ptr %desired, ptr %desired.addr, align 8
  store ptr %supported, ptr %supported.addr, align 8
  store ptr %errorCode, ptr %errorCode.addr, align 8
  %this1 = load ptr, ptr %this.addr, align 8
  %likelySubtags = getelementptr inbounds %"class.icu_75::LocaleMatcher", ptr %this1, i32 0, i32 0
  %0 = load ptr, ptr %likelySubtags, align 8
  %1 = load ptr, ptr %supported.addr, align 8
  %2 = load ptr, ptr %errorCode.addr, align 8
  call void @_ZN6icu_7512_GLOBAL__N_118getMaximalLsrOrUndERKNS_13LikelySubtagsERKNS_6LocaleER10UErrorCode(ptr sret(%"struct.icu_75::LSR") align 8 %suppLSR, ptr noundef nonnull align 8 dereferenceable(352) %0, ptr noundef nonnull align 8 dereferenceable(217) %1, ptr noundef nonnull align 4 dereferenceable(4) %2)
  %3 = load ptr, ptr %errorCode.addr, align 8
  %4 = load i32, ptr %3, align 4
  %call = invoke noundef signext i8 @_ZL9U_FAILURE10UErrorCode(i32 noundef %4)
          to label %invoke.cont unwind label %lpad

invoke.cont:                                      ; preds = %entry
  %tobool = icmp ne i8 %call, 0
  br i1 %tobool, label %if.then, label %if.end

if.then:                                          ; preds = %invoke.cont
  store i8 0, ptr %retval, align 1
  store i32 1, ptr %cleanup.dest.slot, align 4
  br label %cleanup

lpad:                                             ; preds = %if.end, %entry
  %5 = landingpad { ptr, i32 }
          cleanup
  %6 = extractvalue { ptr, i32 } %5, 0
  store ptr %6, ptr %exn.slot, align 8
  %7 = extractvalue { ptr, i32 } %5, 1
  store i32 %7, ptr %ehselector.slot, align 4
  br label %ehcleanup

if.end:                                           ; preds = %invoke.cont
  store ptr %suppLSR, ptr %pSuppLSR, align 8
  %localeDistance = getelementptr inbounds %"class.icu_75::LocaleMatcher", ptr %this1, i32 0, i32 1
  %8 = load ptr, ptr %localeDistance, align 8
  %likelySubtags2 = getelementptr inbounds %"class.icu_75::LocaleMatcher", ptr %this1, i32 0, i32 0
  %9 = load ptr, ptr %likelySubtags2, align 8
  %10 = load ptr, ptr %desired.addr, align 8
  %11 = load ptr, ptr %errorCode.addr, align 8
  invoke void @_ZN6icu_7512_GLOBAL__N_118getMaximalLsrOrUndERKNS_13LikelySubtagsERKNS_6LocaleER10UErrorCode(ptr sret(%"struct.icu_75::LSR") align 8 %ref.tmp, ptr noundef nonnull align 8 dereferenceable(352) %9, ptr noundef nonnull align 8 dereferenceable(217) %10, ptr noundef nonnull align 4 dereferenceable(4) %11)
          to label %invoke.cont3 unwind label %lpad

invoke.cont3:                                     ; preds = %if.end
  %thresholdDistance = getelementptr inbounds %"class.icu_75::LocaleMatcher", ptr %this1, i32 0, i32 2
  %12 = load i32, ptr %thresholdDistance, align 8
  %call6 = invoke noundef i32 @_ZN6icu_7514LocaleDistance13shiftDistanceEi(i32 noundef %12)
          to label %invoke.cont5 unwind label %lpad4

invoke.cont5:                                     ; preds = %invoke.cont3
  %favorSubtag = getelementptr inbounds %"class.icu_75::LocaleMatcher", ptr %this1, i32 0, i32 4
  %13 = load i32, ptr %favorSubtag, align 8
  %direction = getelementptr inbounds %"class.icu_75::LocaleMatcher", ptr %this1, i32 0, i32 5
  %14 = load i32, ptr %direction, align 4
  %call8 = invoke noundef i32 @_ZNK6icu_7514LocaleDistance23getBestIndexAndDistanceERKNS_3LSREPPS2_ii20ULocMatchFavorSubtag18ULocMatchDirection(ptr noundef nonnull align 8 dereferenceable(88) %8, ptr noundef nonnull align 8 dereferenceable(48) %ref.tmp, ptr noundef %pSuppLSR, i32 noundef 1, i32 noundef %call6, i32 noundef %13, i32 noundef %14)
          to label %invoke.cont7 unwind label %lpad4

invoke.cont7:                                     ; preds = %invoke.cont5
  call void @_ZN6icu_753LSRD2Ev(ptr noundef nonnull align 8 dereferenceable(48) %ref.tmp) #11
  store i32 %call8, ptr %indexAndDistance, align 4
  %15 = load i32, ptr %indexAndDistance, align 4
  %cmp = icmp sge i32 %15, 0
  %conv = zext i1 %cmp to i8
  store i8 %conv, ptr %retval, align 1
  store i32 1, ptr %cleanup.dest.slot, align 4
  br label %cleanup

lpad4:                                            ; preds = %invoke.cont5, %invoke.cont3
  %16 = landingpad { ptr, i32 }
          cleanup
  %17 = extractvalue { ptr, i32 } %16, 0
  store ptr %17, ptr %exn.slot, align 8
  %18 = extractvalue { ptr, i32 } %16, 1
  store i32 %18, ptr %ehselector.slot, align 4
  call void @_ZN6icu_753LSRD2Ev(ptr noundef nonnull align 8 dereferenceable(48) %ref.tmp) #11
  br label %ehcleanup

cleanup:                                          ; preds = %invoke.cont7, %if.then
  call void @_ZN6icu_753LSRD2Ev(ptr noundef nonnull align 8 dereferenceable(48) %suppLSR) #11
  %19 = load i8, ptr %retval, align 1
  ret i8 %19

ehcleanup:                                        ; preds = %lpad4, %lpad
  call void @_ZN6icu_753LSRD2Ev(ptr noundef nonnull align 8 dereferenceable(48) %suppLSR) #11
  br label %eh.resume

eh.resume:                                        ; preds = %ehcleanup
  %exn = load ptr, ptr %exn.slot, align 8
  %sel = load i32, ptr %ehselector.slot, align 4
  %lpad.val = insertvalue { ptr, i32 } poison, ptr %exn, 0
  %lpad.val9 = insertvalue { ptr, i32 } %lpad.val, i32 %sel, 1
  resume { ptr, i32 } %lpad.val9
}